target datalayout = "e-m:e-p270:32:32-p271:32:32-p272:64:64-i64:64-i128:128-f80:128-n8:16:32:64-S128"
target triple = "x86_64-pc-linux-gnu"

; Function Attrs: nounwind uwtable
define hidden void @aom_vertical_band_2_1_scale_i_c(ptr noundef %0, i32 noundef %1, ptr noundef %2, i32 noundef %3, i32 noundef %4) #0 {
  %6 = alloca ptr, align 8
  %7 = alloca i32, align 4
  %8 = alloca ptr, align 8
  %9 = alloca i32, align 4
  %10 = alloca i32, align 4
  %11 = alloca ptr, align 8
  %12 = alloca i32, align 4
  %13 = alloca i32, align 4
  %14 = alloca i32, align 4
  store ptr %0, ptr %6, align 8
  store i32 %1, ptr %7, align 4
  store ptr %2, ptr %8, align 8
  store i32 %3, ptr %9, align 4
  store i32 %4, ptr %10, align 4
  %15 = load ptr, ptr %8, align 8
  %16 = load i32, ptr %10, align 4
  %17 = zext i32 %16 to i64
  %18 = getelementptr inbounds i8, ptr %15, i64 %17
  store ptr %18, ptr %11, align 8
  br label %19

19:                                               ; preds = %23, %5
  %20 = load ptr, ptr %8, align 8
  %21 = load ptr, ptr %11, align 8
  %22 = icmp ult ptr %20, %21
  br i1 %22, label %23, label %58

23:                                               ; preds = %19
  %24 = load ptr, ptr %6, align 8
  %25 = load i32, ptr %7, align 4
  %26 = sub nsw i32 0, %25
  %27 = sext i32 %26 to i64
  %28 = getelementptr inbounds i8, ptr %24, i64 %27
  %29 = load i8, ptr %28, align 1
  %30 = zext i8 %29 to i32
  %31 = mul nsw i32 %30, 3
  store i32 %31, ptr %12, align 4
  %32 = load ptr, ptr %6, align 8
  %33 = getelementptr inbounds i8, ptr %32, i64 0
  %34 = load i8, ptr %33, align 1
  %35 = zext i8 %34 to i32
  %36 = mul nsw i32 %35, 10
  store i32 %36, ptr %13, align 4
  %37 = load ptr, ptr %6, align 8
  %38 = load i32, ptr %7, align 4
  %39 = sext i32 %38 to i64
  %40 = getelementptr inbounds i8, ptr %37, i64 %39
  %41 = load i8, ptr %40, align 1
  %42 = zext i8 %41 to i32
  %43 = mul nsw i32 %42, 3
  store i32 %43, ptr %14, align 4
  %44 = load i32, ptr %12, align 4
  %45 = add i32 8, %44
  %46 = load i32, ptr %13, align 4
  %47 = add i32 %45, %46
  %48 = load i32, ptr %14, align 4
  %49 = add i32 %47, %48
  %50 = lshr i32 %49, 4
  %51 = trunc i32 %50 to i8
  %52 = load ptr, ptr %8, align 8
  %53 = getelementptr inbounds i8, ptr %52, i64 0
  store i8 %51, ptr %53, align 1
  %54 = load ptr, ptr %6, align 8
  %55 = getelementptr inbounds i8, ptr %54, i32 1
  store ptr %55, ptr %6, align 8
  %56 = load ptr, ptr %8, align 8
  %57 = getelementptr inbounds i8, ptr %56, i32 1
  store ptr %57, ptr %8, align 8
  br label %19, !llvm.loop !10

58:                                               ; preds = %19
  ret void
}