; Function Attrs: nofree norecurse nosync nounwind memory(argmem: readwrite) uwtable
define hidden void @aom_vertical_band_2_1_scale_i_c(ptr noundef readonly captures(none) %0, i32 noundef %1, ptr noundef writeonly %2, i32 noundef %3, i32 noundef %4) local_unnamed_addr #0 {
  %6 = zext i32 %4 to i64
  %7 = getelementptr inbounds nuw i8, ptr %2, i64 %6
  %.not = icmp eq i32 %4, 0
  br i1 %.not, label %._crit_edge, label %.lr.ph

.lr.ph:                                           ; preds = %5
  %8 = sub nsw i32 0, %1
  %9 = sext i32 %8 to i64
  %10 = sext i32 %1 to i64
  br label %11

11:                                               ; preds = %.lr.ph, %11
  %.016 = phi ptr [ %0, %.lr.ph ], [ %25, %11 ]
  %.01415 = phi ptr [ %2, %.lr.ph ], [ %26, %11 ]
  %12 = getelementptr inbounds i8, ptr %.016, i64 %9
  %13 = load i8, ptr %12, align 1
  %14 = zext i8 %13 to i16
  %15 = load i8, ptr %.016, align 1
  %16 = zext i8 %15 to i16
  %17 = mul nuw nsw i16 %16, 10
  %18 = getelementptr inbounds i8, ptr %.016, i64 %10
  %19 = load i8, ptr %18, align 1
  %20 = zext i8 %19 to i16
  %reass.add = add nuw nsw i16 %20, %14
  %reass.mul = mul nuw nsw i16 %reass.add, 3
  %21 = add nuw nsw i16 %17, 8
  %22 = add nuw nsw i16 %21, %reass.mul
  %23 = lshr i16 %22, 4
  %24 = trunc nuw i16 %23 to i8
  store i8 %24, ptr %.01415, align 1
  %25 = getelementptr inbounds nuw i8, ptr %.016, i64 1
  %26 = getelementptr inbounds nuw i8, ptr %.01415, i64 1
  %27 = icmp ult ptr %26, %7
  br i1 %27, label %11, label %._crit_edge, !llvm.loop !10

._crit_edge:                                      ; preds = %11, %5
  ret void
}